target datalayout = "e-m:e-p270:32:32-p271:32:32-p272:64:64-i64:64-i128:128-f80:128-n8:16:32:64-S128"
target triple = "x86_64-pc-linux-gnu"

%struct.cfl_ctx = type { [1024 x i16], [1024 x i16], [2 x i32], i32, [2 x [32 x i16]], i32, i32, i32, i32, i32, i32 }
%struct.macroblockd = type { i32, i32, i32, i8, [3 x %struct.macroblockd_plane], %struct.TileInfo, ptr, i8, i8, i8, i8, ptr, ptr, ptr, ptr, ptr, i32, i32, i32, i32, i32, [2 x ptr], ptr, [3 x ptr], [3 x [32 x i8]], ptr, [32 x i8], ptr, ptr, [32 x i8], [3 x %struct.WienerInfo], [3 x %struct.SgrprojInfo], i8, i8, [29 x [8 x %struct.candidate_mv]], [29 x [8 x i16]], i8, i8, [8 x i8], ptr, i32, [8 x i32], [8 x i32], i32, i32, ptr, ptr, i8, [4 x i8], [4 x i8], [7 x i8], [32768 x i8], %struct.cfl_ctx, [2 x i16], ptr, [2 x ptr] }
%struct.macroblockd_plane = type { i8, i32, i32, %struct.buf_2d, [2 x %struct.buf_2d], ptr, ptr, [8 x [2 x i16]], ptr, i8, i8, [8 x [19 x ptr]], [8 x [19 x ptr]] }
%struct.buf_2d = type { ptr, ptr, i32, i32, i32 }
%struct.TileInfo = type { i32, i32, i32, i32, i32, i32 }
%struct.WienerInfo = type { [8 x i16], [8 x i16] }
%struct.SgrprojInfo = type { i32, [2 x i32] }
%struct.candidate_mv = type { %union.int_mv, %union.int_mv }
%union.int_mv = type { i32 }
%struct.yv12_buffer_config = type { %union.anon, %union.anon.0, %union.anon.2, %union.anon.4, %union.anon.6, %union.anon.8, i32, [3 x ptr], ptr, i32, ptr, i64, i32, i64, i32, i32, i32, i32, i32, i32, i8, i32, i32, i32, i32, i32, i32, ptr }
%union.anon = type { %struct.anon }
%struct.anon = type { i32, i32 }
%union.anon.0 = type { %struct.anon.1 }
%struct.anon.1 = type { i32, i32 }
%union.anon.2 = type { %struct.anon.3 }
%struct.anon.3 = type { i32, i32 }
%union.anon.4 = type { %struct.anon.5 }
%struct.anon.5 = type { i32, i32 }
%union.anon.6 = type { %struct.anon.7 }
%struct.anon.7 = type { i32, i32 }
%union.anon.8 = type { %struct.anon.9 }
%struct.anon.9 = type { ptr, ptr, ptr }
%struct.MB_MODE_INFO = type <{ i8, i8, i8, i8, i32, [2 x %union.int_mv], [2 x i8], [2 x i8], %union.int_interpfilters, i8, i8, i8, i8, %struct.WarpedMotionParams, i8, i8, [6 x i8], %struct.INTERINTER_COMPOUND_DATA, [2 x i8], %struct.FILTER_INTRA_MODE_INFO, i8, i8, %struct.PALETTE_MODE_INFO, i8, i8, [16 x i8], i8, [4 x i8], i16, [7 x i8] }>
%union.int_interpfilters = type { i32 }
%struct.WarpedMotionParams = type { [8 x i32], i16, i16, i16, i16, i8, i8 }
%struct.INTERINTER_COMPOUND_DATA = type { ptr, i8, i8, i8, i8 }
%struct.FILTER_INTRA_MODE_INFO = type { i8, i8 }
%struct.PALETTE_MODE_INFO = type { [24 x i16], [2 x i8] }

@tx_size_wide = internal constant [19 x i32] [i32 4, i32 8, i32 16, i32 32, i32 64, i32 4, i32 8, i32 8, i32 16, i32 16, i32 32, i32 32, i32 64, i32 4, i32 16, i32 8, i32 32, i32 16, i32 64], align 16
@tx_size_high = internal constant [19 x i32] [i32 4, i32 8, i32 16, i32 32, i32 64, i32 8, i32 4, i32 16, i32 8, i32 32, i32 16, i32 64, i32 32, i32 16, i32 4, i32 32, i32 8, i32 64, i32 16], align 16

; Function Attrs: nounwind uwtable
define hidden ptr @cfl_get_subtract_average_fn_c(i8 noundef zeroext %0) #0 {
  %2 = alloca i8, align 1
  store i8 %0, ptr %2, align 1
  %3 = load i8, ptr %2, align 1
  %4 = zext i8 %3 to i32
  %5 = srem i32 %4, 19
  %6 = sext i32 %5 to i64
  %7 = getelementptr inbounds [19 x ptr], ptr @cfl_get_subtract_average_fn_c.sub_avg, i64 0, i64 %6
  %8 = load ptr, ptr %7, align 8
  ret ptr %8
}

; Function Attrs: nounwind uwtable
define internal void @cfl_pad(ptr noundef %0, i32 noundef %1, i32 noundef %2) #0 {
  %4 = alloca ptr, align 8
  %5 = alloca i32, align 4
  %6 = alloca i32, align 4
  %7 = alloca i32, align 4
  %8 = alloca i32, align 4
  %9 = alloca i32, align 4
  %10 = alloca ptr, align 8
  %11 = alloca i32, align 4
  %12 = alloca i16, align 2
  %13 = alloca i32, align 4
  %14 = alloca ptr, align 8
  %15 = alloca i32, align 4
  %16 = alloca ptr, align 8
  %17 = alloca i32, align 4
  store ptr %0, ptr %4, align 8
  store i32 %1, ptr %5, align 4
  store i32 %2, ptr %6, align 4
  %18 = load i32, ptr %5, align 4
  %19 = load ptr, ptr %4, align 8
  %20 = getelementptr inbounds nuw %struct.cfl_ctx, ptr %19, i32 0, i32 6
  %21 = load i32, ptr %20, align 4
  %22 = sub nsw i32 %18, %21
  store i32 %22, ptr %7, align 4
  %23 = load i32, ptr %6, align 4
  %24 = load ptr, ptr %4, align 8
  %25 = getelementptr inbounds nuw %struct.cfl_ctx, ptr %24, i32 0, i32 5
  %26 = load i32, ptr %25, align 4
  %27 = sub nsw i32 %23, %26
  store i32 %27, ptr %8, align 4
  %28 = load i32, ptr %7, align 4
  %29 = icmp sgt i32 %28, 0
  br i1 %29, label %30, label %73

30:                                               ; preds = %3
  %31 = load i32, ptr %6, align 4
  %32 = load i32, ptr %8, align 4
  %33 = sub nsw i32 %31, %32
  store i32 %33, ptr %9, align 4
  %34 = load ptr, ptr %4, align 8
  %35 = getelementptr inbounds nuw %struct.cfl_ctx, ptr %34, i32 0, i32 0
  %36 = getelementptr inbounds [1024 x i16], ptr %35, i64 0, i64 0
  %37 = load i32, ptr %5, align 4
  %38 = load i32, ptr %7, align 4
  %39 = sub nsw i32 %37, %38
  %40 = sext i32 %39 to i64
  %41 = getelementptr inbounds i16, ptr %36, i64 %40
  store ptr %41, ptr %10, align 8
  store i32 0, ptr %11, align 4
  br label %42

42:                                               ; preds = %66, %30
  %43 = load i32, ptr %11, align 4
  %44 = load i32, ptr %9, align 4
  %45 = icmp slt i32 %43, %44
  br i1 %45, label %46, label %69

46:                                               ; preds = %42
  %47 = load ptr, ptr %10, align 8
  %48 = getelementptr inbounds i16, ptr %47, i64 -1
  %49 = load i16, ptr %48, align 2
  store i16 %49, ptr %12, align 2
  store i32 0, ptr %13, align 4
  br label %50

50:                                               ; preds = %60, %46
  %51 = load i32, ptr %13, align 4
  %52 = load i32, ptr %7, align 4
  %53 = icmp slt i32 %51, %52
  br i1 %53, label %54, label %63

54:                                               ; preds = %50
  %55 = load i16, ptr %12, align 2
  %56 = load ptr, ptr %10, align 8
  %57 = load i32, ptr %13, align 4
  %58 = sext i32 %57 to i64
  %59 = getelementptr inbounds i16, ptr %56, i64 %58
  store i16 %55, ptr %59, align 2
  br label %60

60:                                               ; preds = %54
  %61 = load i32, ptr %13, align 4
  %62 = add nsw i32 %61, 1
  store i32 %62, ptr %13, align 4
  br label %50, !llvm.loop !27

63:                                               ; preds = %50
  %64 = load ptr, ptr %10, align 8
  %65 = getelementptr inbounds i16, ptr %64, i64 32
  store ptr %65, ptr %10, align 8
  br label %66

66:                                               ; preds = %63
  %67 = load i32, ptr %11, align 4
  %68 = add nsw i32 %67, 1
  store i32 %68, ptr %11, align 4
  br label %42, !llvm.loop !28

69:                                               ; preds = %42
  %70 = load i32, ptr %5, align 4
  %71 = load ptr, ptr %4, align 8
  %72 = getelementptr inbounds nuw %struct.cfl_ctx, ptr %71, i32 0, i32 6
  store i32 %70, ptr %72, align 4
  br label %73

73:                                               ; preds = %69, %3
  %74 = load i32, ptr %8, align 4
  %75 = icmp sgt i32 %74, 0
  br i1 %75, label %76, label %120

76:                                               ; preds = %73
  %77 = load ptr, ptr %4, align 8
  %78 = getelementptr inbounds nuw %struct.cfl_ctx, ptr %77, i32 0, i32 0
  %79 = getelementptr inbounds [1024 x i16], ptr %78, i64 0, i64 0
  %80 = load i32, ptr %6, align 4
  %81 = load i32, ptr %8, align 4
  %82 = sub nsw i32 %80, %81
  %83 = mul nsw i32 %82, 32
  %84 = sext i32 %83 to i64
  %85 = getelementptr inbounds i16, ptr %79, i64 %84
  store ptr %85, ptr %14, align 8
  store i32 0, ptr %15, align 4
  br label %86

86:                                               ; preds = %113, %76
  %87 = load i32, ptr %15, align 4
  %88 = load i32, ptr %8, align 4
  %89 = icmp slt i32 %87, %88
  br i1 %89, label %90, label %116

90:                                               ; preds = %86
  %91 = load ptr, ptr %14, align 8
  %92 = getelementptr inbounds i16, ptr %91, i64 -32
  store ptr %92, ptr %16, align 8
  store i32 0, ptr %17, align 4
  br label %93

93:                                               ; preds = %107, %90
  %94 = load i32, ptr %17, align 4
  %95 = load i32, ptr %5, align 4
  %96 = icmp slt i32 %94, %95
  br i1 %96, label %97, label %110

97:                                               ; preds = %93
  %98 = load ptr, ptr %16, align 8
  %99 = load i32, ptr %17, align 4
  %100 = sext i32 %99 to i64
  %101 = getelementptr inbounds i16, ptr %98, i64 %100
  %102 = load i16, ptr %101, align 2
  %103 = load ptr, ptr %14, align 8
  %104 = load i32, ptr %17, align 4
  %105 = sext i32 %104 to i64
  %106 = getelementptr inbounds i16, ptr %103, i64 %105
  store i16 %102, ptr %106, align 2
  br label %107

107:                                              ; preds = %97
  %108 = load i32, ptr %17, align 4
  %109 = add nsw i32 %108, 1
  store i32 %109, ptr %17, align 4
  br label %93, !llvm.loop !29

110:                                              ; preds = %93
  %111 = load ptr, ptr %14, align 8
  %112 = getelementptr inbounds i16, ptr %111, i64 32
  store ptr %112, ptr %14, align 8
  br label %113

113:                                              ; preds = %110
  %114 = load i32, ptr %15, align 4
  %115 = add nsw i32 %114, 1
  store i32 %115, ptr %15, align 4
  br label %86, !llvm.loop !30

116:                                              ; preds = %86
  %117 = load i32, ptr %6, align 4
  %118 = load ptr, ptr %4, align 8
  %119 = getelementptr inbounds nuw %struct.cfl_ctx, ptr %118, i32 0, i32 5
  store i32 %117, ptr %119, align 4
  br label %120

120:                                              ; preds = %116, %73
  ret void
}

; Function Attrs: nounwind uwtable
define hidden ptr @cfl_get_predict_lbd_fn_c(i8 noundef zeroext %0) #0 {
  %2 = alloca i8, align 1
  store i8 %0, ptr %2, align 1
  %3 = load i8, ptr %2, align 1
  %4 = zext i8 %3 to i32
  %5 = srem i32 %4, 19
  %6 = sext i32 %5 to i64
  %7 = getelementptr inbounds [19 x ptr], ptr @cfl_get_predict_lbd_fn_c.pred, i64 0, i64 %6
  %8 = load ptr, ptr %7, align 8
  ret ptr %8
}

; Function Attrs: nounwind uwtable
define hidden ptr @cfl_get_predict_hbd_fn_c(i8 noundef zeroext %0) #0 {
  %2 = alloca i8, align 1
  store i8 %0, ptr %2, align 1
  %3 = load i8, ptr %2, align 1
  %4 = zext i8 %3 to i32
  %5 = srem i32 %4, 19
  %6 = sext i32 %5 to i64
  %7 = getelementptr inbounds [19 x ptr], ptr @cfl_get_predict_hbd_fn_c.pred, i64 0, i64 %6
  %8 = load ptr, ptr %7, align 8
  ret ptr %8
}

; Function Attrs: nounwind uwtable
define internal i32 @is_cur_buf_hbd(ptr noundef %0) #0 {
  %2 = alloca ptr, align 8
  store ptr %0, ptr %2, align 8
  %3 = load ptr, ptr %2, align 8
  %4 = getelementptr inbounds nuw %struct.macroblockd, ptr %3, i32 0, i32 22
  %5 = load ptr, ptr %4, align 8
  %6 = getelementptr inbounds nuw %struct.yv12_buffer_config, ptr %5, i32 0, i32 26
  %7 = load i32, ptr %6, align 8
  %8 = and i32 %7, 8
  %9 = icmp ne i32 %8, 0
  %10 = select i1 %9, i32 1, i32 0
  ret i32 %10
}

; Function Attrs: nounwind uwtable
define internal i32 @cfl_idx_to_alpha(i8 noundef zeroext %0, i8 noundef signext %1, i8 noundef zeroext %2) #0 {
  %4 = alloca i32, align 4
  %5 = alloca i8, align 1
  %6 = alloca i8, align 1
  %7 = alloca i8, align 1
  %8 = alloca i32, align 4
  %9 = alloca i32, align 4
  store i8 %0, ptr %5, align 1
  store i8 %1, ptr %6, align 1
  store i8 %2, ptr %7, align 1
  %10 = load i8, ptr %7, align 1
  %11 = zext i8 %10 to i32
  %12 = icmp eq i32 %11, 0
  br i1 %12, label %13, label %19

13:                                               ; preds = %3
  %14 = load i8, ptr %6, align 1
  %15 = sext i8 %14 to i32
  %16 = add nsw i32 %15, 1
  %17 = mul nsw i32 %16, 11
  %18 = ashr i32 %17, 5
  br label %30

19:                                               ; preds = %3
  %20 = load i8, ptr %6, align 1
  %21 = sext i8 %20 to i32
  %22 = add nsw i32 %21, 1
  %23 = load i8, ptr %6, align 1
  %24 = sext i8 %23 to i32
  %25 = add nsw i32 %24, 1
  %26 = mul nsw i32 %25, 11
  %27 = ashr i32 %26, 5
  %28 = mul nsw i32 3, %27
  %29 = sub nsw i32 %22, %28
  br label %30

30:                                               ; preds = %19, %13
  %31 = phi i32 [ %18, %13 ], [ %29, %19 ]
  store i32 %31, ptr %8, align 4
  %32 = load i32, ptr %8, align 4
  %33 = icmp eq i32 %32, 0
  br i1 %33, label %34, label %35

34:                                               ; preds = %30
  store i32 0, ptr %4, align 4
  br label %60

35:                                               ; preds = %30
  %36 = load i8, ptr %7, align 1
  %37 = zext i8 %36 to i32
  %38 = icmp eq i32 %37, 0
  br i1 %38, label %39, label %43

39:                                               ; preds = %35
  %40 = load i8, ptr %5, align 1
  %41 = zext i8 %40 to i32
  %42 = ashr i32 %41, 4
  br label %47

43:                                               ; preds = %35
  %44 = load i8, ptr %5, align 1
  %45 = zext i8 %44 to i32
  %46 = and i32 %45, 15
  br label %47

47:                                               ; preds = %43, %39
  %48 = phi i32 [ %42, %39 ], [ %46, %43 ]
  store i32 %48, ptr %9, align 4
  %49 = load i32, ptr %8, align 4
  %50 = icmp eq i32 %49, 2
  br i1 %50, label %51, label %54

51:                                               ; preds = %47
  %52 = load i32, ptr %9, align 4
  %53 = add nsw i32 %52, 1
  br label %58

54:                                               ; preds = %47
  %55 = load i32, ptr %9, align 4
  %56 = sub nsw i32 0, %55
  %57 = sub nsw i32 %56, 1
  br label %58

58:                                               ; preds = %54, %51
  %59 = phi i32 [ %53, %51 ], [ %57, %54 ]
  store i32 %59, ptr %4, align 4
  br label %60

60:                                               ; preds = %58, %34
  %61 = load i32, ptr %4, align 4
  ret i32 %61
}

; Function Attrs: nounwind uwtable
define internal void @cfl_compute_parameters(ptr noundef %0, i8 noundef zeroext %1) #0 {
  %3 = alloca ptr, align 8
  %4 = alloca i8, align 1
  %5 = alloca ptr, align 8
  store ptr %0, ptr %3, align 8
  store i8 %1, ptr %4, align 1
  %6 = load ptr, ptr %3, align 8
  %7 = getelementptr inbounds nuw %struct.macroblockd, ptr %6, i32 0, i32 52
  store ptr %7, ptr %5, align 8
  %8 = load ptr, ptr %5, align 8
  %9 = load i8, ptr %4, align 1
  %10 = zext i8 %9 to i64
  %11 = getelementptr inbounds [19 x i32], ptr @tx_size_wide, i64 0, i64 %10
  %12 = load i32, ptr %11, align 4
  %13 = load i8, ptr %4, align 1
  %14 = zext i8 %13 to i64
  %15 = getelementptr inbounds [19 x i32], ptr @tx_size_high, i64 0, i64 %14
  %16 = load i32, ptr %15, align 4
  call void @cfl_pad(ptr noundef %8, i32 noundef %12, i32 noundef %16)
  %17 = load i8, ptr %4, align 1
  %18 = call ptr @cfl_get_subtract_average_fn_c(i8 noundef zeroext %17)
  %19 = load ptr, ptr %5, align 8
  %20 = getelementptr inbounds nuw %struct.cfl_ctx, ptr %19, i32 0, i32 0
  %21 = getelementptr inbounds [1024 x i16], ptr %20, i64 0, i64 0
  %22 = load ptr, ptr %5, align 8
  %23 = getelementptr inbounds nuw %struct.cfl_ctx, ptr %22, i32 0, i32 1
  %24 = getelementptr inbounds [1024 x i16], ptr %23, i64 0, i64 0
  call void %18(ptr noundef %21, ptr noundef %24)
  %25 = load ptr, ptr %5, align 8
  %26 = getelementptr inbounds nuw %struct.cfl_ctx, ptr %25, i32 0, i32 7
  store i32 1, ptr %26, align 4
  ret void
}

; Function Attrs: nounwind uwtable
define hidden void @cfl_predict_block(ptr noundef %0, ptr noundef %1, i32 noundef %2, i8 noundef zeroext %3, i32 noundef %4) #0 {
  %6 = alloca ptr, align 8
  %7 = alloca ptr, align 8
  %8 = alloca i32, align 4
  %9 = alloca i8, align 1
  %10 = alloca i32, align 4
  %11 = alloca ptr, align 8
  %12 = alloca ptr, align 8
  %13 = alloca i32, align 4
  %14 = alloca ptr, align 8
  store ptr %0, ptr %6, align 8
  store ptr %1, ptr %7, align 8
  store i32 %2, ptr %8, align 4
  store i8 %3, ptr %9, align 1
  store i32 %4, ptr %10, align 4
  %15 = load ptr, ptr %6, align 8
  %16 = getelementptr inbounds nuw %struct.macroblockd, ptr %15, i32 0, i32 52
  store ptr %16, ptr %11, align 8
  %17 = load ptr, ptr %6, align 8
  %18 = getelementptr inbounds nuw %struct.macroblockd, ptr %17, i32 0, i32 6
  %19 = load ptr, ptr %18, align 8
  %20 = getelementptr inbounds ptr, ptr %19, i64 0
  %21 = load ptr, ptr %20, align 8
  store ptr %21, ptr %12, align 8
  %22 = load ptr, ptr %11, align 8
  %23 = getelementptr inbounds nuw %struct.cfl_ctx, ptr %22, i32 0, i32 7
  %24 = load i32, ptr %23, align 4
  %25 = icmp ne i32 %24, 0
  br i1 %25, label %29, label %26

26:                                               ; preds = %5
  %27 = load ptr, ptr %6, align 8
  %28 = load i8, ptr %9, align 1
  call void @cfl_compute_parameters(ptr noundef %27, i8 noundef zeroext %28)
  br label %29

29:                                               ; preds = %26, %5
  %30 = load ptr, ptr %12, align 8
  %31 = getelementptr inbounds nuw %struct.MB_MODE_INFO, ptr %30, i32 0, i32 21
  %32 = load i8, ptr %31, align 1
  %33 = load ptr, ptr %12, align 8
  %34 = getelementptr inbounds nuw %struct.MB_MODE_INFO, ptr %33, i32 0, i32 20
  %35 = load i8, ptr %34, align 4
  %36 = load i32, ptr %10, align 4
  %37 = sub nsw i32 %36, 1
  %38 = trunc i32 %37 to i8
  %39 = call i32 @cfl_idx_to_alpha(i8 noundef zeroext %32, i8 noundef signext %35, i8 noundef zeroext %38)
  store i32 %39, ptr %13, align 4
  %40 = load ptr, ptr %6, align 8
  %41 = call i32 @is_cur_buf_hbd(ptr noundef %40)
  %42 = icmp ne i32 %41, 0
  br i1 %42, label %43, label %59

43:                                               ; preds = %29
  %44 = load ptr, ptr %7, align 8
  %45 = ptrtoint ptr %44 to i64
  %46 = shl i64 %45, 1
  %47 = inttoptr i64 %46 to ptr
  store ptr %47, ptr %14, align 8
  %48 = load i8, ptr %9, align 1
  %49 = call ptr @cfl_get_predict_hbd_fn_c(i8 noundef zeroext %48)
  %50 = load ptr, ptr %11, align 8
  %51 = getelementptr inbounds nuw %struct.cfl_ctx, ptr %50, i32 0, i32 1
  %52 = getelementptr inbounds [1024 x i16], ptr %51, i64 0, i64 0
  %53 = load ptr, ptr %14, align 8
  %54 = load i32, ptr %8, align 4
  %55 = load i32, ptr %13, align 4
  %56 = load ptr, ptr %6, align 8
  %57 = getelementptr inbounds nuw %struct.macroblockd, ptr %56, i32 0, i32 40
  %58 = load i32, ptr %57, align 16
  call void %49(ptr noundef %52, ptr noundef %53, i32 noundef %54, i32 noundef %55, i32 noundef %58)
  br label %68

59:                                               ; preds = %29
  %60 = load i8, ptr %9, align 1
  %61 = call ptr @cfl_get_predict_lbd_fn_c(i8 noundef zeroext %60)
  %62 = load ptr, ptr %11, align 8
  %63 = getelementptr inbounds nuw %struct.cfl_ctx, ptr %62, i32 0, i32 1
  %64 = getelementptr inbounds [1024 x i16], ptr %63, i64 0, i64 0
  %65 = load ptr, ptr %7, align 8
  %66 = load i32, ptr %8, align 4
  %67 = load i32, ptr %13, align 4
  call void %61(ptr noundef %64, ptr noundef %65, i32 noundef %66, i32 noundef %67)
  br label %68

68:                                               ; preds = %59, %43
  ret void
}