; Function Attrs: nounwind uwtable
define hidden void @cfl_predict_block(ptr noundef %0, ptr noundef %1, i32 noundef %2, i8 noundef zeroext %3, i32 noundef %4) local_unnamed_addr #7 {
  %6 = getelementptr inbounds nuw i8, ptr %0, i64 7864
  %7 = load ptr, ptr %6, align 8
  %8 = load ptr, ptr %7, align 8
  %9 = getelementptr inbounds i8, ptr %0, i64 47780
  %10 = load i32, ptr %9, align 4
  %.not = icmp eq i32 %10, 0
  br i1 %.not, label %11, label %52

11:                                               ; preds = %5
  %12 = getelementptr inbounds nuw i8, ptr %0, i64 43536
  %13 = zext i8 %3 to i64
  %14 = getelementptr inbounds [19 x i32], ptr @tx_size_wide, i64 0, i64 %13
  %15 = load i32, ptr %14, align 4
  %16 = getelementptr inbounds [19 x i32], ptr @tx_size_high, i64 0, i64 %13
  %17 = load i32, ptr %16, align 4
  %18 = getelementptr inbounds i8, ptr %0, i64 47776
  %19 = load i32, ptr %18, align 4
  %20 = sub nsw i32 %15, %19
  %21 = getelementptr inbounds i8, ptr %0, i64 47772
  %22 = load i32, ptr %21, align 4
  %23 = sub i32 %17, %22
  %24 = icmp sgt i32 %20, 0
  br i1 %24, label %25, label %35

25:                                               ; preds = %11
  %26 = icmp sgt i32 %22, 0
  br i1 %26, label %.lr.ph.us.preheader.i.i, label %._crit_edge52.i.i

.lr.ph.us.preheader.i.i:                          ; preds = %25
  %27 = sext i32 %19 to i64
  %28 = getelementptr inbounds i16, ptr %12, i64 %27
  %wide.trip.count.i.i = zext nneg i32 %20 to i64
  br label %.lr.ph.us.i.i

.lr.ph.us.i.i:                                    ; preds = %._crit_edge.us.i.i, %.lr.ph.us.preheader.i.i
  %.04049.us.i.i = phi ptr [ %33, %._crit_edge.us.i.i ], [ %28, %.lr.ph.us.preheader.i.i ]
  %.04448.us.i.i = phi i32 [ %34, %._crit_edge.us.i.i ], [ 0, %.lr.ph.us.preheader.i.i ]
  %29 = getelementptr inbounds i8, ptr %.04049.us.i.i, i64 -2
  %30 = load i16, ptr %29, align 2
  br label %31

31:                                               ; preds = %31, %.lr.ph.us.i.i
  %indvars.iv.i.i = phi i64 [ 0, %.lr.ph.us.i.i ], [ %indvars.iv.next.i.i, %31 ]
  %32 = getelementptr inbounds i16, ptr %.04049.us.i.i, i64 %indvars.iv.i.i
  store i16 %30, ptr %32, align 2
  %indvars.iv.next.i.i = add nuw nsw i64 %indvars.iv.i.i, 1
  %exitcond.not.i.i = icmp eq i64 %indvars.iv.next.i.i, %wide.trip.count.i.i
  br i1 %exitcond.not.i.i, label %._crit_edge.us.i.i, label %31, !llvm.loop !15

._crit_edge.us.i.i:                               ; preds = %31
  %33 = getelementptr inbounds i8, ptr %.04049.us.i.i, i64 64
  %34 = add nuw nsw i32 %.04448.us.i.i, 1
  %exitcond63.not.i.i = icmp eq i32 %34, %22
  br i1 %exitcond63.not.i.i, label %._crit_edge52.i.i, label %.lr.ph.us.i.i, !llvm.loop !16

._crit_edge52.i.i:                                ; preds = %._crit_edge.us.i.i, %25
  store i32 %15, ptr %18, align 4
  br label %35

35:                                               ; preds = %._crit_edge52.i.i, %11
  %36 = icmp sgt i32 %23, 0
  br i1 %36, label %.lr.ph.us56.preheader.i.i, label %cfl_compute_parameters.exit

.lr.ph.us56.preheader.i.i:                        ; preds = %35
  %37 = shl nsw i32 %22, 5
  %38 = sext i32 %37 to i64
  %39 = getelementptr inbounds i16, ptr %12, i64 %38
  %wide.trip.count67.i.i = zext nneg i32 %15 to i64
  br label %.lr.ph.us56.i.i

.lr.ph.us56.i.i:                                  ; preds = %._crit_edge.us57.i.i, %.lr.ph.us56.preheader.i.i
  %.04155.us.i.i = phi i32 [ %46, %._crit_edge.us57.i.i ], [ 0, %.lr.ph.us56.preheader.i.i ]
  %.04254.us.i.i = phi ptr [ %45, %._crit_edge.us57.i.i ], [ %39, %.lr.ph.us56.preheader.i.i ]
  %40 = getelementptr inbounds i8, ptr %.04254.us.i.i, i64 -64
  br label %41

41:                                               ; preds = %41, %.lr.ph.us56.i.i
  %indvars.iv64.i.i = phi i64 [ 0, %.lr.ph.us56.i.i ], [ %indvars.iv.next65.i.i, %41 ]
  %42 = getelementptr inbounds i16, ptr %40, i64 %indvars.iv64.i.i
  %43 = load i16, ptr %42, align 2
  %44 = getelementptr inbounds i16, ptr %.04254.us.i.i, i64 %indvars.iv64.i.i
  store i16 %43, ptr %44, align 2
  %indvars.iv.next65.i.i = add nuw nsw i64 %indvars.iv64.i.i, 1
  %exitcond68.not.i.i = icmp eq i64 %indvars.iv.next65.i.i, %wide.trip.count67.i.i
  br i1 %exitcond68.not.i.i, label %._crit_edge.us57.i.i, label %41, !llvm.loop !17

._crit_edge.us57.i.i:                             ; preds = %41
  %45 = getelementptr inbounds i8, ptr %.04254.us.i.i, i64 64
  %46 = add nuw nsw i32 %.04155.us.i.i, 1
  %exitcond69.not.i.i = icmp eq i32 %46, %23
  br i1 %exitcond69.not.i.i, label %.split59.us.i.i, label %.lr.ph.us56.i.i, !llvm.loop !18

.split59.us.i.i:                                  ; preds = %._crit_edge.us57.i.i
  store i32 %17, ptr %21, align 4
  br label %cfl_compute_parameters.exit

cfl_compute_parameters.exit:                      ; preds = %35, %.split59.us.i.i
  %47 = urem i8 %3, 19
  %48 = zext nneg i8 %47 to i64
  %49 = getelementptr inbounds [19 x ptr], ptr @cfl_get_subtract_average_fn_c.sub_avg, i64 0, i64 %48
  %50 = load ptr, ptr %49, align 8
  %51 = getelementptr inbounds i8, ptr %0, i64 45584
  tail call void %50(ptr noundef nonnull %12, ptr noundef nonnull %51) #9
  store i32 1, ptr %9, align 4
  br label %52

52:                                               ; preds = %cfl_compute_parameters.exit, %5
  %53 = getelementptr inbounds nuw i8, ptr %8, i64 101
  %54 = load i8, ptr %53, align 1
  %55 = getelementptr inbounds nuw i8, ptr %8, i64 100
  %56 = load i8, ptr %55, align 4
  %57 = and i32 %4, 255
  %58 = icmp eq i32 %57, 1
  %59 = sext i8 %56 to i32
  br i1 %58, label %60, label %64

60:                                               ; preds = %52
  %61 = mul nsw i32 %59, 11
  %62 = add nsw i32 %61, 11
  %63 = ashr i32 %62, 5
  br label %69

64:                                               ; preds = %52
  %65 = add nsw i32 %59, 1
  %66 = mul nsw i32 %65, 11
  %67 = ashr i32 %66, 5
  %.neg.i = mul nsw i32 %67, -3
  %68 = add nsw i32 %.neg.i, %65
  br label %69

69:                                               ; preds = %64, %60
  %70 = phi i32 [ %63, %60 ], [ %68, %64 ]
  %71 = icmp eq i32 %70, 0
  br i1 %71, label %cfl_idx_to_alpha.exit, label %72

72:                                               ; preds = %69
  %73 = zext i8 %54 to i32
  %74 = lshr i32 %73, 4
  %75 = and i32 %73, 15
  %76 = select i1 %58, i32 %74, i32 %75
  %77 = icmp eq i32 %70, 2
  %78 = add nuw nsw i32 %76, 1
  %79 = xor i32 %76, -1
  %80 = select i1 %77, i32 %78, i32 %79
  br label %cfl_idx_to_alpha.exit

cfl_idx_to_alpha.exit:                            ; preds = %69, %72
  %.0.i = phi i32 [ %80, %72 ], [ 0, %69 ]
  %81 = getelementptr i8, ptr %0, i64 7960
  %.val = load ptr, ptr %81, align 8
  %82 = getelementptr i8, ptr %.val, i64 192
  %.val.val = load i32, ptr %82, align 8
  %83 = and i32 %.val.val, 8
  %.not20 = icmp eq i32 %83, 0
  br i1 %.not20, label %95, label %84

84:                                               ; preds = %cfl_idx_to_alpha.exit
  %85 = ptrtoint ptr %1 to i64
  %86 = shl i64 %85, 1
  %87 = inttoptr i64 %86 to ptr
  %88 = urem i8 %3, 19
  %89 = zext nneg i8 %88 to i64
  %90 = getelementptr inbounds [19 x ptr], ptr @cfl_get_predict_hbd_fn_c.pred, i64 0, i64 %89
  %91 = load ptr, ptr %90, align 8
  %92 = getelementptr inbounds i8, ptr %0, i64 45584
  %93 = getelementptr inbounds nuw i8, ptr %0, i64 10656
  %94 = load i32, ptr %93, align 16
  tail call void %91(ptr noundef nonnull %92, ptr noundef %87, i32 noundef %2, i32 noundef %.0.i, i32 noundef %94) #9
  br label %101

95:                                               ; preds = %cfl_idx_to_alpha.exit
  %96 = urem i8 %3, 19
  %97 = zext nneg i8 %96 to i64
  %98 = getelementptr inbounds [19 x ptr], ptr @cfl_get_predict_lbd_fn_c.pred, i64 0, i64 %97
  %99 = load ptr, ptr %98, align 8
  %100 = getelementptr inbounds i8, ptr %0, i64 45584
  tail call void %99(ptr noundef nonnull %100, ptr noundef %1, i32 noundef %2, i32 noundef %.0.i) #9
  br label %101

101:                                              ; preds = %95, %84
  ret void
}